; Function Attrs: nounwind sspstrong uwtable
define dso_local void @rb_syswait(i32 noundef %0) local_unnamed_addr #1 {
  %2 = tail call i64 @rb_process_status_wait(i32 noundef %0, i32 noundef 0)
  %3 = icmp eq i64 %2, 4
  br i1 %3, label %rb_waitpid.exit, label %4

4:                                                ; preds = %1
  %5 = tail call ptr @rb_check_typeddata(i64 noundef %2, ptr noundef nonnull @rb_process_status_type) #27
  %6 = load i32, ptr %5, align 4, !tbaa !49
  %7 = icmp eq i32 %6, -1
  br i1 %7, label %8, label %12

8:                                                ; preds = %4
  %9 = getelementptr inbounds nuw i8, ptr %5, i64 8
  %10 = load i32, ptr %9, align 4, !tbaa !52
  %11 = tail call ptr @rb_errno_ptr() #27
  store i32 %10, ptr %11, align 4, !tbaa !60
  br label %rb_waitpid.exit

12:                                               ; preds = %4
  %13 = tail call align 8 ptr @llvm.threadlocal.address.p0(ptr align 8 @ruby_current_ec)
  %14 = load ptr, ptr %13, align 8, !tbaa !7
  %15 = getelementptr i8, ptr %14, i64 48
  %.val.i.i = load ptr, ptr %15, align 8, !tbaa !12
  %16 = getelementptr inbounds nuw i8, ptr %.val.i.i, i64 208
  store i64 %2, ptr %16, align 8, !tbaa !24
  br label %rb_waitpid.exit

rb_waitpid.exit:                                  ; preds = %1, %8, %12
  ret void
}